; Function Attrs: nounwind uwtable
define hidden noalias ptr @mi_zalloc_aligned_at(i64 noundef %0, i64 noundef %1, i64 noundef %2) local_unnamed_addr #0 {
  %4 = tail call align 8 ptr @llvm.threadlocal.address.p0(ptr align 8 @_mi_heap_default)
  %5 = load ptr, ptr %4, align 8, !tbaa !17
  %6 = icmp eq i64 %1, 0
  br i1 %6, label %mi_heap_zalloc_aligned_at.exit, label %7, !prof !3

7:                                                ; preds = %3
  %8 = tail call range(i64 1, 65) i64 @llvm.ctpop.i64(i64 %1)
  %9 = icmp samesign ugt i64 %8, 1
  %10 = icmp ugt i64 %1, 1048576
  %or.cond.i.i = or i1 %10, %9
  %11 = icmp slt i64 %0, 0
  %or.cond34.i.i = or i1 %11, %or.cond.i.i
  br i1 %or.cond34.i.i, label %mi_heap_zalloc_aligned_at.exit, label %12, !prof !4

12:                                               ; preds = %7
  %13 = icmp samesign ult i64 %0, 1025
  br i1 %13, label %14, label %30, !prof !5

14:                                               ; preds = %12
  %15 = add nsw i64 %1, -1
  %16 = add nuw nsw i64 %0, 7
  %17 = lshr i64 %16, 3
  %18 = getelementptr inbounds nuw i8, ptr %5, i64 8
  %19 = getelementptr inbounds nuw [129 x ptr], ptr %18, i64 0, i64 %17
  %20 = load ptr, ptr %19, align 8, !tbaa !6
  %21 = getelementptr inbounds nuw i8, ptr %20, i64 16
  %22 = load ptr, ptr %21, align 8, !tbaa !11
  %23 = ptrtoint ptr %22 to i64
  %24 = add i64 %2, %23
  %25 = and i64 %24, %15
  %26 = icmp ne i64 %25, 0
  %27 = icmp eq ptr %22, null
  %.not33.i.i = select i1 %27, i1 true, i1 %26
  br i1 %.not33.i.i, label %30, label %28, !prof !3

28:                                               ; preds = %14
  %29 = tail call ptr @_mi_page_malloc(ptr noundef nonnull %5, ptr noundef nonnull %20, i64 noundef %0) #8
  tail call void @_mi_block_zero_init(ptr noundef nonnull %20, ptr noundef %29, i64 noundef %0) #8
  br label %mi_heap_zalloc_aligned_at.exit

30:                                               ; preds = %14, %12
  %31 = tail call fastcc ptr @mi_heap_malloc_zero_aligned_at_fallback(ptr noundef %5, i64 noundef %0, i64 noundef %1, i64 noundef %2, i1 noundef zeroext true)
  br label %mi_heap_zalloc_aligned_at.exit

mi_heap_zalloc_aligned_at.exit:                   ; preds = %3, %7, %28, %30
  %.028.i.i = phi ptr [ null, %7 ], [ %31, %30 ], [ null, %3 ], [ %29, %28 ]
  ret ptr %.028.i.i
}